target datalayout = "e-m:e-p270:32:32-p271:32:32-p272:64:64-i64:64-i128:128-f80:128-n8:16:32:64-S128"
target triple = "x86_64-pc-linux-gnu"

%"class.icu_77::UnicodeString" = type { %"class.icu_77::Replaceable", %"union.icu_77::UnicodeString::StackBufferOrFields" }
%"class.icu_77::Replaceable" = type { %"class.icu_77::UObject" }
%"class.icu_77::UObject" = type { ptr }
%"union.icu_77::UnicodeString::StackBufferOrFields" = type { %struct.anon.0, [32 x i8] }
%struct.anon.0 = type { i16, i32, i32, ptr }
%"class.icu_77::ConstChar16Ptr" = type { ptr }

; Function Attrs: inlinehint mustprogress nounwind uwtable
define linkonce_odr void @_ZN6icu_7714ConstChar16PtrD2Ev(ptr noundef nonnull align 8 dereferenceable(8) %0) unnamed_addr #3 comdat align 2 {
  %2 = alloca ptr, align 8
  store ptr %0, ptr %2, align 8, !tbaa !14
  %3 = load ptr, ptr %2, align 8
  %4 = getelementptr inbounds nuw %"class.icu_77::ConstChar16Ptr", ptr %3, i32 0, i32 0
  %5 = load ptr, ptr %4, align 8, !tbaa !16
  call void asm sideeffect "", "rm,~{memory},~{dirflag},~{fpsr},~{flags}"(ptr %5) #9, !srcloc !18
  ret void
}

; Function Attrs: inlinehint mustprogress nounwind uwtable
define linkonce_odr void @_ZN6icu_7714ConstChar16PtrC2EPKDs(ptr noundef nonnull align 8 dereferenceable(8) %0, ptr noundef %1) unnamed_addr #3 comdat align 2 {
  %3 = alloca ptr, align 8
  %4 = alloca ptr, align 8
  store ptr %0, ptr %3, align 8, !tbaa !14
  store ptr %1, ptr %4, align 8, !tbaa !10
  %5 = load ptr, ptr %3, align 8
  %6 = getelementptr inbounds nuw %"class.icu_77::ConstChar16Ptr", ptr %5, i32 0, i32 0
  %7 = load ptr, ptr %4, align 8, !tbaa !10
  store ptr %7, ptr %6, align 8, !tbaa !16
  ret void
}

; Function Attrs: mustprogress uwtable
define ptr @izrule_open_77(ptr noundef %0, i32 noundef %1, i32 noundef %2, i32 noundef %3) #1 personality ptr @__gxx_personality_v0 {
  %5 = alloca ptr, align 8
  %6 = alloca i32, align 4
  %7 = alloca i32, align 4
  %8 = alloca i32, align 4
  %9 = alloca %"class.icu_77::UnicodeString", align 8
  %10 = alloca %"class.icu_77::ConstChar16Ptr", align 8
  %11 = alloca ptr, align 8
  %12 = alloca i32, align 4
  %13 = alloca ptr, align 8
  %14 = alloca i1, align 1
  store ptr %0, ptr %5, align 8, !tbaa !10
  store i32 %1, ptr %6, align 4, !tbaa !12
  store i32 %2, ptr %7, align 4, !tbaa !12
  store i32 %3, ptr %8, align 4, !tbaa !12
  call void @llvm.lifetime.start.p0(i64 64, ptr %9) #9
  %15 = load i32, ptr %6, align 4, !tbaa !12
  %16 = icmp eq i32 %15, -1
  %17 = zext i1 %16 to i8
  %18 = load ptr, ptr %5, align 8, !tbaa !10
  call void @_ZN6icu_7714ConstChar16PtrC2EPKDs(ptr noundef nonnull align 8 dereferenceable(8) %10, ptr noundef %18)
  %19 = load i32, ptr %6, align 4, !tbaa !12
  invoke void @_ZN6icu_7713UnicodeStringC1EaNS_14ConstChar16PtrEi(ptr noundef nonnull align 8 dereferenceable(64) %9, i8 noundef signext %17, ptr noundef %10, i32 noundef %19)
          to label %20 unwind label %29

20:                                               ; preds = %4
  call void @_ZN6icu_7714ConstChar16PtrD2Ev(ptr noundef nonnull align 8 dereferenceable(8) %10) #9
  %21 = call noundef ptr @_ZN6icu_777UMemorynwEm(i64 noundef 80) #9
  %22 = icmp eq ptr %21, null
  store i1 false, ptr %14, align 1
  br i1 %22, label %27, label %23

23:                                               ; preds = %20
  store ptr %21, ptr %13, align 8
  store i1 true, ptr %14, align 1
  %24 = load i32, ptr %7, align 4, !tbaa !12
  %25 = load i32, ptr %8, align 4, !tbaa !12
  invoke void @_ZN6icu_7719InitialTimeZoneRuleC1ERKNS_13UnicodeStringEii(ptr noundef nonnull align 8 dereferenceable(80) %21, ptr noundef nonnull align 8 dereferenceable(64) %9, i32 noundef %24, i32 noundef %25)
          to label %26 unwind label %33

26:                                               ; preds = %23
  br label %27

27:                                               ; preds = %26, %20
  %28 = phi ptr [ %21, %26 ], [ null, %20 ]
  call void @_ZN6icu_7713UnicodeStringD1Ev(ptr noundef nonnull align 8 dereferenceable(64) %9) #9
  call void @llvm.lifetime.end.p0(i64 64, ptr %9) #9
  ret ptr %28

29:                                               ; preds = %4
  %30 = landingpad { ptr, i32 }
          cleanup
  %31 = extractvalue { ptr, i32 } %30, 0
  store ptr %31, ptr %11, align 8
  %32 = extractvalue { ptr, i32 } %30, 1
  store i32 %32, ptr %12, align 4
  call void @_ZN6icu_7714ConstChar16PtrD2Ev(ptr noundef nonnull align 8 dereferenceable(8) %10) #9
  br label %41

33:                                               ; preds = %23
  %34 = landingpad { ptr, i32 }
          cleanup
  %35 = extractvalue { ptr, i32 } %34, 0
  store ptr %35, ptr %11, align 8
  %36 = extractvalue { ptr, i32 } %34, 1
  store i32 %36, ptr %12, align 4
  %37 = load i1, ptr %14, align 1
  br i1 %37, label %38, label %40

38:                                               ; preds = %33
  %39 = load ptr, ptr %13, align 8
  call void @_ZN6icu_777UMemorydlEPv(ptr noundef %39) #9
  br label %40

40:                                               ; preds = %38, %33
  call void @_ZN6icu_7713UnicodeStringD1Ev(ptr noundef nonnull align 8 dereferenceable(64) %9) #9
  br label %41

41:                                               ; preds = %40, %29
  call void @llvm.lifetime.end.p0(i64 64, ptr %9) #9
  br label %42

42:                                               ; preds = %41
  %43 = load ptr, ptr %11, align 8
  %44 = load i32, ptr %12, align 4
  %45 = insertvalue { ptr, i32 } poison, ptr %43, 0
  %46 = insertvalue { ptr, i32 } %45, i32 %44, 1
  resume { ptr, i32 } %46
}