; Function Attrs: mustprogress uwtable
define noundef ptr @izrule_open_77(ptr noundef %0, i32 noundef %1, i32 noundef %2, i32 noundef %3) local_unnamed_addr #1 personality ptr @__gxx_personality_v0 {
  %5 = alloca %"class.icu_77::UnicodeString", align 8
  %6 = alloca %"class.icu_77::ConstChar16Ptr", align 8
  call void @llvm.lifetime.start.p0(i64 64, ptr nonnull %5) #7
  %7 = icmp eq i32 %1, -1
  %8 = zext i1 %7 to i8
  store ptr %0, ptr %6, align 8, !tbaa !6
  invoke void @_ZN6icu_7713UnicodeStringC1EaNS_14ConstChar16PtrEi(ptr noundef nonnull align 8 dereferenceable(64) %5, i8 noundef signext %8, ptr noundef nonnull %6, i32 noundef %1)
          to label %9 unwind label %15

9:                                                ; preds = %4
  %10 = load ptr, ptr %6, align 8, !tbaa !6
  call void asm sideeffect "", "rm,~{memory},~{dirflag},~{fpsr},~{flags}"(ptr %10) #7, !srcloc !11
  %11 = call noundef ptr @_ZN6icu_777UMemorynwEm(i64 noundef 80) #7
  %12 = icmp eq ptr %11, null
  br i1 %12, label %14, label %13

13:                                               ; preds = %9
  invoke void @_ZN6icu_7719InitialTimeZoneRuleC1ERKNS_13UnicodeStringEii(ptr noundef nonnull align 8 dereferenceable(80) %11, ptr noundef nonnull align 8 dereferenceable(64) %5, i32 noundef %2, i32 noundef %3)
          to label %14 unwind label %18

14:                                               ; preds = %13, %9
  call void @_ZN6icu_7713UnicodeStringD1Ev(ptr noundef nonnull align 8 dereferenceable(64) %5) #7
  call void @llvm.lifetime.end.p0(i64 64, ptr nonnull %5) #7
  ret ptr %11

15:                                               ; preds = %4
  %16 = landingpad { ptr, i32 }
          cleanup
  %17 = load ptr, ptr %6, align 8, !tbaa !6
  call void asm sideeffect "", "rm,~{memory},~{dirflag},~{fpsr},~{flags}"(ptr %17) #7, !srcloc !11
  br label %20

18:                                               ; preds = %13
  %19 = landingpad { ptr, i32 }
          cleanup
  call void @_ZN6icu_777UMemorydlEPv(ptr noundef nonnull %11) #7
  call void @_ZN6icu_7713UnicodeStringD1Ev(ptr noundef nonnull align 8 dereferenceable(64) %5) #7
  br label %20

20:                                               ; preds = %18, %15
  %.pn = phi { ptr, i32 } [ %19, %18 ], [ %16, %15 ]
  call void @llvm.lifetime.end.p0(i64 64, ptr nonnull %5) #7
  resume { ptr, i32 } %.pn
}